target datalayout = "e-m:e-p270:32:32-p271:32:32-p272:64:64-i64:64-i128:128-f80:128-n8:16:32:64-S128"
target triple = "x86_64-unknown-linux-gnu"

%"class.google::protobuf::FieldDescriptor" = type { ptr, ptr, ptr, ptr, ptr, ptr, ptr, i32, i32, i8, i8, i8, i8, i32, i32, ptr, ptr, ptr, ptr, ptr, ptr, ptr, ptr, %union.anon }
%union.anon = type { i64 }
%"class.google::protobuf::Descriptor" = type <{ ptr, ptr, ptr, ptr, ptr, ptr, ptr, ptr, ptr, ptr, ptr, ptr, ptr, i32, i32, i32, i32, i32, i32, i32, i32, i32, i8, i8, i8, i8 }>
%"class.struct_pb::compiler::FieldGeneratorMap" = type { ptr, %"class.std::vector.15" }
%"class.std::vector.15" = type { %"struct.std::_Vector_base.16" }
%"struct.std::_Vector_base.16" = type { %"struct.std::_Vector_base<std::unique_ptr<struct_pb::compiler::FieldGenerator>, std::allocator<std::unique_ptr<struct_pb::compiler::FieldGenerator>>>::_Vector_impl" }
%"struct.std::_Vector_base<std::unique_ptr<struct_pb::compiler::FieldGenerator>, std::allocator<std::unique_ptr<struct_pb::compiler::FieldGenerator>>>::_Vector_impl" = type { %"struct.std::_Vector_base<std::unique_ptr<struct_pb::compiler::FieldGenerator>, std::allocator<std::unique_ptr<struct_pb::compiler::FieldGenerator>>>::_Vector_impl_data" }
%"struct.std::_Vector_base<std::unique_ptr<struct_pb::compiler::FieldGenerator>, std::allocator<std::unique_ptr<struct_pb::compiler::FieldGenerator>>>::_Vector_impl_data" = type { ptr, ptr, ptr }
%"class.std::unique_ptr" = type { %"struct.std::__uniq_ptr_data" }
%"struct.std::__uniq_ptr_data" = type { %"class.std::__uniq_ptr_impl" }
%"class.std::__uniq_ptr_impl" = type { %"class.std::tuple" }
%"class.std::tuple" = type { %"struct.std::_Tuple_impl" }
%"struct.std::_Tuple_impl" = type { %"struct.std::_Head_base.21" }
%"struct.std::_Head_base.21" = type { ptr }
%"class.google::protobuf::FileDescriptor" = type { ptr, ptr, ptr, ptr, i32, i32, i32, i32, i32, i32, i32, i32, i8, i8, ptr, ptr, ptr, ptr, ptr, ptr, ptr, ptr, ptr, ptr, ptr }

; Function Attrs: mustprogress nounwind uwtable
define linkonce_odr dso_local noundef nonnull align 8 dereferenceable(8) ptr @_ZNSt10_Head_baseILm0EPN9struct_pb8compiler14FieldGeneratorELb0EE7_M_headERKS4_(ptr noundef nonnull align 8 dereferenceable(8) %__b) #5 comdat align 2 {
entry:
  %__b.addr = alloca ptr, align 8
  store ptr %__b, ptr %__b.addr, align 8
  %0 = load ptr, ptr %__b.addr, align 8
  %_M_head_impl = getelementptr inbounds %"struct.std::_Head_base.21", ptr %0, i32 0, i32 0
  ret ptr %_M_head_impl
}

; Function Attrs: mustprogress nounwind uwtable
define linkonce_odr dso_local noundef nonnull align 8 dereferenceable(8) ptr @_ZNSt11_Tuple_implILm0EJPN9struct_pb8compiler14FieldGeneratorESt14default_deleteIS2_EEE7_M_headERKS6_(ptr noundef nonnull align 8 dereferenceable(8) %__t) #5 comdat align 2 {
entry:
  %__t.addr = alloca ptr, align 8
  store ptr %__t, ptr %__t.addr, align 8
  %0 = load ptr, ptr %__t.addr, align 8
  %call = call noundef nonnull align 8 dereferenceable(8) ptr @_ZNSt10_Head_baseILm0EPN9struct_pb8compiler14FieldGeneratorELb0EE7_M_headERKS4_(ptr noundef nonnull align 8 dereferenceable(8) %0) #3
  ret ptr %call
}

; Function Attrs: mustprogress nounwind uwtable
define linkonce_odr dso_local noundef nonnull align 8 dereferenceable(8) ptr @_ZSt12__get_helperILm0EPN9struct_pb8compiler14FieldGeneratorEJSt14default_deleteIS2_EEERKT0_RKSt11_Tuple_implIXT_EJS6_DpT1_EE(ptr noundef nonnull align 8 dereferenceable(8) %__t) #5 comdat {
entry:
  %__t.addr = alloca ptr, align 8
  store ptr %__t, ptr %__t.addr, align 8
  %0 = load ptr, ptr %__t.addr, align 8
  %call = call noundef nonnull align 8 dereferenceable(8) ptr @_ZNSt11_Tuple_implILm0EJPN9struct_pb8compiler14FieldGeneratorESt14default_deleteIS2_EEE7_M_headERKS6_(ptr noundef nonnull align 8 dereferenceable(8) %0) #3
  ret ptr %call
}

; Function Attrs: mustprogress nounwind uwtable
define linkonce_odr dso_local noundef nonnull align 8 dereferenceable(8) ptr @_ZSt3getILm0EJPN9struct_pb8compiler14FieldGeneratorESt14default_deleteIS2_EEERKNSt13tuple_elementIXT_ESt5tupleIJDpT0_EEE4typeERKSA_(ptr noundef nonnull align 8 dereferenceable(8) %__t) #5 comdat {
entry:
  %__t.addr = alloca ptr, align 8
  store ptr %__t, ptr %__t.addr, align 8
  %0 = load ptr, ptr %__t.addr, align 8
  %call = call noundef nonnull align 8 dereferenceable(8) ptr @_ZSt12__get_helperILm0EPN9struct_pb8compiler14FieldGeneratorEJSt14default_deleteIS2_EEERKT0_RKSt11_Tuple_implIXT_EJS6_DpT1_EE(ptr noundef nonnull align 8 dereferenceable(8) %0) #3
  ret ptr %call
}

; Function Attrs: mustprogress nounwind uwtable
define linkonce_odr dso_local noundef ptr @_ZNKSt15__uniq_ptr_implIN9struct_pb8compiler14FieldGeneratorESt14default_deleteIS2_EE6_M_ptrEv(ptr noundef nonnull align 8 dereferenceable(8) %this) #5 comdat align 2 {
entry:
  %this.addr = alloca ptr, align 8
  store ptr %this, ptr %this.addr, align 8
  %this1 = load ptr, ptr %this.addr, align 8
  %_M_t = getelementptr inbounds %"class.std::__uniq_ptr_impl", ptr %this1, i32 0, i32 0
  %call = call noundef nonnull align 8 dereferenceable(8) ptr @_ZSt3getILm0EJPN9struct_pb8compiler14FieldGeneratorESt14default_deleteIS2_EEERKNSt13tuple_elementIXT_ESt5tupleIJDpT0_EEE4typeERKSA_(ptr noundef nonnull align 8 dereferenceable(8) %_M_t) #3
  %0 = load ptr, ptr %call, align 8
  ret ptr %0
}

; Function Attrs: mustprogress nounwind uwtable
define linkonce_odr dso_local noundef ptr @_ZNKSt10unique_ptrIN9struct_pb8compiler14FieldGeneratorESt14default_deleteIS2_EE3getEv(ptr noundef nonnull align 8 dereferenceable(8) %this) #5 comdat align 2 {
entry:
  %this.addr = alloca ptr, align 8
  store ptr %this, ptr %this.addr, align 8
  %this1 = load ptr, ptr %this.addr, align 8
  %_M_t = getelementptr inbounds %"class.std::unique_ptr", ptr %this1, i32 0, i32 0
  %call = call noundef ptr @_ZNKSt15__uniq_ptr_implIN9struct_pb8compiler14FieldGeneratorESt14default_deleteIS2_EE6_M_ptrEv(ptr noundef nonnull align 8 dereferenceable(8) %_M_t) #3
  ret ptr %call
}

; Function Attrs: mustprogress nounwind uwtable
define linkonce_odr dso_local noundef ptr @_ZNK6google8protobuf15FieldDescriptor15containing_typeEv(ptr noundef nonnull align 8 dereferenceable(152) %this) #5 comdat align 2 {
entry:
  %this.addr = alloca ptr, align 8
  store ptr %this, ptr %this.addr, align 8
  %this1 = load ptr, ptr %this.addr, align 8
  %containing_type_ = getelementptr inbounds %"class.google::protobuf::FieldDescriptor", ptr %this1, i32 0, i32 15
  %0 = load ptr, ptr %containing_type_, align 8
  ret ptr %0
}

; Function Attrs: mustprogress nounwind uwtable
define linkonce_odr dso_local noundef nonnull align 8 dereferenceable(64) ptr @_ZNKSt10unique_ptrIN9struct_pb8compiler14FieldGeneratorESt14default_deleteIS2_EEdeEv(ptr noundef nonnull align 8 dereferenceable(8) %this) #5 comdat align 2 {
entry:
  %this.addr = alloca ptr, align 8
  store ptr %this, ptr %this.addr, align 8
  %this1 = load ptr, ptr %this.addr, align 8
  br label %do.body

do.body:                                          ; preds = %entry
  br label %do.cond

do.cond:                                          ; preds = %do.body
  br label %do.end

do.end:                                           ; preds = %do.cond
  %call = call noundef ptr @_ZNKSt10unique_ptrIN9struct_pb8compiler14FieldGeneratorESt14default_deleteIS2_EE3getEv(ptr noundef nonnull align 8 dereferenceable(8) %this1) #3
  ret ptr %call
}

; Function Attrs: mustprogress nounwind uwtable
define linkonce_odr dso_local noundef nonnull align 8 dereferenceable(8) ptr @_ZNKSt6vectorISt10unique_ptrIN9struct_pb8compiler14FieldGeneratorESt14default_deleteIS3_EESaIS6_EEixEm(ptr noundef nonnull align 8 dereferenceable(24) %this, i64 noundef %__n) #5 comdat align 2 {
entry:
  %this.addr = alloca ptr, align 8
  %__n.addr = alloca i64, align 8
  store ptr %this, ptr %this.addr, align 8
  store i64 %__n, ptr %__n.addr, align 8
  %this1 = load ptr, ptr %this.addr, align 8
  %_M_impl = getelementptr inbounds %"struct.std::_Vector_base.16", ptr %this1, i32 0, i32 0
  %_M_start = getelementptr inbounds %"struct.std::_Vector_base<std::unique_ptr<struct_pb::compiler::FieldGenerator>, std::allocator<std::unique_ptr<struct_pb::compiler::FieldGenerator>>>::_Vector_impl_data", ptr %_M_impl, i32 0, i32 0
  %0 = load ptr, ptr %_M_start, align 8
  %1 = load i64, ptr %__n.addr, align 8
  %add.ptr = getelementptr inbounds %"class.std::unique_ptr", ptr %0, i64 %1
  ret ptr %add.ptr
}

; Function Attrs: mustprogress nounwind uwtable
define linkonce_odr dso_local noundef i32 @_ZNK6google8protobuf15FieldDescriptor5indexEv(ptr noundef nonnull align 8 dereferenceable(152) %this) #5 comdat align 2 {
entry:
  %retval = alloca i32, align 4
  %this.addr = alloca ptr, align 8
  store ptr %this, ptr %this.addr, align 8
  %this1 = load ptr, ptr %this.addr, align 8
  %is_extension_ = getelementptr inbounds %"class.google::protobuf::FieldDescriptor", ptr %this1, i32 0, i32 12
  %0 = load i8, ptr %is_extension_, align 1
  %tobool = trunc i8 %0 to i1
  br i1 %tobool, label %if.else, label %if.then

if.then:                                          ; preds = %entry
  %call = call noundef ptr @_ZNK6google8protobuf15FieldDescriptor15containing_typeEv(ptr noundef nonnull align 8 dereferenceable(152) %this1)
  %fields_ = getelementptr inbounds %"class.google::protobuf::Descriptor", ptr %call, i32 0, i32 5
  %1 = load ptr, ptr %fields_, align 8
  %sub.ptr.lhs.cast = ptrtoint ptr %this1 to i64
  %sub.ptr.rhs.cast = ptrtoint ptr %1 to i64
  %sub.ptr.sub = sub i64 %sub.ptr.lhs.cast, %sub.ptr.rhs.cast
  %sub.ptr.div = sdiv exact i64 %sub.ptr.sub, 152
  %conv = trunc i64 %sub.ptr.div to i32
  store i32 %conv, ptr %retval, align 4
  br label %return

if.else:                                          ; preds = %entry
  %extension_scope_ = getelementptr inbounds %"class.google::protobuf::FieldDescriptor", ptr %this1, i32 0, i32 17
  %2 = load ptr, ptr %extension_scope_, align 8
  %cmp = icmp ne ptr %2, null
  br i1 %cmp, label %if.then2, label %if.else9

if.then2:                                         ; preds = %if.else
  %extension_scope_3 = getelementptr inbounds %"class.google::protobuf::FieldDescriptor", ptr %this1, i32 0, i32 17
  %3 = load ptr, ptr %extension_scope_3, align 8
  %extensions_ = getelementptr inbounds %"class.google::protobuf::Descriptor", ptr %3, i32 0, i32 10
  %4 = load ptr, ptr %extensions_, align 8
  %sub.ptr.lhs.cast4 = ptrtoint ptr %this1 to i64
  %sub.ptr.rhs.cast5 = ptrtoint ptr %4 to i64
  %sub.ptr.sub6 = sub i64 %sub.ptr.lhs.cast4, %sub.ptr.rhs.cast5
  %sub.ptr.div7 = sdiv exact i64 %sub.ptr.sub6, 152
  %conv8 = trunc i64 %sub.ptr.div7 to i32
  store i32 %conv8, ptr %retval, align 4
  br label %return

if.else9:                                         ; preds = %if.else
  %file_ = getelementptr inbounds %"class.google::protobuf::FieldDescriptor", ptr %this1, i32 0, i32 5
  %5 = load ptr, ptr %file_, align 8
  %extensions_10 = getelementptr inbounds %"class.google::protobuf::FileDescriptor", ptr %5, i32 0, i32 21
  %6 = load ptr, ptr %extensions_10, align 8
  %sub.ptr.lhs.cast11 = ptrtoint ptr %this1 to i64
  %sub.ptr.rhs.cast12 = ptrtoint ptr %6 to i64
  %sub.ptr.sub13 = sub i64 %sub.ptr.lhs.cast11, %sub.ptr.rhs.cast12
  %sub.ptr.div14 = sdiv exact i64 %sub.ptr.sub13, 152
  %conv15 = trunc i64 %sub.ptr.div14 to i32
  store i32 %conv15, ptr %retval, align 4
  br label %return

return:                                           ; preds = %if.else9, %if.then2, %if.then
  %7 = load i32, ptr %retval, align 4
  ret i32 %7
}

; Function Attrs: mustprogress uwtable
define dso_local noundef nonnull align 8 dereferenceable(64) ptr @_ZNK9struct_pb8compiler17FieldGeneratorMap3getEPKN6google8protobuf15FieldDescriptorE(ptr noundef nonnull align 8 dereferenceable(32) %this, ptr noundef %field) #4 align 2 {
entry:
  %this.addr = alloca ptr, align 8
  %field.addr = alloca ptr, align 8
  store ptr %this, ptr %this.addr, align 8
  store ptr %field, ptr %field.addr, align 8
  %this1 = load ptr, ptr %this.addr, align 8
  %field_generators_ = getelementptr inbounds %"class.struct_pb::compiler::FieldGeneratorMap", ptr %this1, i32 0, i32 1
  %0 = load ptr, ptr %field.addr, align 8
  %call = call noundef i32 @_ZNK6google8protobuf15FieldDescriptor5indexEv(ptr noundef nonnull align 8 dereferenceable(152) %0)
  %conv = sext i32 %call to i64
  %call2 = call noundef nonnull align 8 dereferenceable(8) ptr @_ZNKSt6vectorISt10unique_ptrIN9struct_pb8compiler14FieldGeneratorESt14default_deleteIS3_EESaIS6_EEixEm(ptr noundef nonnull align 8 dereferenceable(24) %field_generators_, i64 noundef %conv) #3
  %call3 = call noundef nonnull align 8 dereferenceable(64) ptr @_ZNKSt10unique_ptrIN9struct_pb8compiler14FieldGeneratorESt14default_deleteIS2_EEdeEv(ptr noundef nonnull align 8 dereferenceable(8) %call2) #3
  ret ptr %call3
}