; Function Attrs: mustprogress nofree norecurse nosync nounwind willreturn memory(read, inaccessiblemem: none) uwtable
define dso_local noundef nonnull align 8 dereferenceable(64) ptr @_ZNK9struct_pb8compiler17FieldGeneratorMap3getEPKN6google8protobuf15FieldDescriptorE(ptr nocapture noundef nonnull readonly align 8 dereferenceable(32) %this, ptr noundef %field) local_unnamed_addr #6 align 2 {
entry:
  %is_extension_.i = getelementptr inbounds i8, ptr %field, i64 67
  %0 = load i8, ptr %is_extension_.i, align 1
  %1 = and i8 %0, 1
  %tobool.not.i = icmp eq i8 %1, 0
  br i1 %tobool.not.i, label %if.then.i, label %if.else.i

if.then.i:                                        ; preds = %entry
  %containing_type_.i.i = getelementptr inbounds i8, ptr %field, i64 80
  %2 = load ptr, ptr %containing_type_.i.i, align 8
  %fields_.i = getelementptr inbounds i8, ptr %2, i64 40
  br label %_ZNK6google8protobuf15FieldDescriptor5indexEv.exit

if.else.i:                                        ; preds = %entry
  %extension_scope_.i = getelementptr inbounds i8, ptr %field, i64 96
  %3 = load ptr, ptr %extension_scope_.i, align 8
  %cmp.not.i = icmp eq ptr %3, null
  br i1 %cmp.not.i, label %if.else9.i, label %if.then2.i

if.then2.i:                                       ; preds = %if.else.i
  %extensions_.i = getelementptr inbounds i8, ptr %3, i64 80
  br label %_ZNK6google8protobuf15FieldDescriptor5indexEv.exit

if.else9.i:                                       ; preds = %if.else.i
  %file_.i = getelementptr inbounds i8, ptr %field, i64 40
  %4 = load ptr, ptr %file_.i, align 8
  %extensions_10.i = getelementptr inbounds i8, ptr %4, i64 128
  br label %_ZNK6google8protobuf15FieldDescriptor5indexEv.exit

_ZNK6google8protobuf15FieldDescriptor5indexEv.exit: ; preds = %if.then.i, %if.then2.i, %if.else9.i
  %extensions_10.sink.i = phi ptr [ %extensions_10.i, %if.else9.i ], [ %extensions_.i, %if.then2.i ], [ %fields_.i, %if.then.i ]
  %field_generators_ = getelementptr inbounds i8, ptr %this, i64 8
  %5 = load ptr, ptr %extensions_10.sink.i, align 8
  %sub.ptr.lhs.cast11.i = ptrtoint ptr %field to i64
  %sub.ptr.rhs.cast12.i = ptrtoint ptr %5 to i64
  %sub.ptr.sub13.i = sub i64 %sub.ptr.lhs.cast11.i, %sub.ptr.rhs.cast12.i
  %retval.0.in.i = sdiv exact i64 %sub.ptr.sub13.i, 152
  %sext = shl i64 %retval.0.in.i, 32
  %conv = ashr exact i64 %sext, 32
  %6 = load ptr, ptr %field_generators_, align 8
  %add.ptr.i = getelementptr inbounds %"class.std::unique_ptr", ptr %6, i64 %conv
  %7 = load ptr, ptr %add.ptr.i, align 8
  ret ptr %7
}